; Function Attrs: mustprogress uwtable
define hidden void @_ZN6google8protobuf8compiler4java31ImmutableExtensionLiteGeneratorC2EPKNS0_15FieldDescriptorEPNS2_7ContextE(ptr noundef nonnull align 8 dereferenceable(64) %this, ptr noundef %descriptor, ptr noundef nonnull %context) unnamed_addr #3 align 2 personality ptr @__gxx_personality_v0 {
entry:
  %ref.tmp2.i = alloca %"class.absl::lts_20230802::log_internal::LogMessageFatal", align 8
  %ref.tmp = alloca %"class.std::__cxx11::basic_string", align 8
  %ref.tmp13 = alloca %"class.std::__cxx11::basic_string", align 8
  store ptr getelementptr inbounds ({ [7 x ptr] }, ptr @_ZTVN6google8protobuf8compiler4java31ImmutableExtensionLiteGeneratorE, i64 0, i32 0, i64 2), ptr %this, align 8
  %descriptor_ = getelementptr inbounds i8, ptr %this, i64 8
  store ptr %descriptor, ptr %descriptor_, align 8
  %name_resolver_ = getelementptr inbounds i8, ptr %this, i64 16
  %call = tail call noundef ptr @_ZNK6google8protobuf8compiler4java7Context15GetNameResolverEv(ptr noundef nonnull align 8 dereferenceable(152) %context)
  store ptr %call, ptr %name_resolver_, align 8
  %scope_ = getelementptr inbounds i8, ptr %this, i64 24
  tail call void @_ZNSt7__cxx1112basic_stringIcSt11char_traitsIcESaIcEEC1Ev(ptr noundef nonnull align 8 dereferenceable(32) %scope_) #23
  %context_ = getelementptr inbounds i8, ptr %this, i64 56
  store ptr %context, ptr %context_, align 8
  %0 = load ptr, ptr %descriptor_, align 8
  call void @llvm.lifetime.start.p0(i64 16, ptr nonnull %ref.tmp2.i)
  %is_extension_.i = getelementptr inbounds i8, ptr %0, i64 1
  %bf.load.i = load i8, ptr %is_extension_.i, align 1
  %1 = and i8 %bf.load.i, 8
  %bf.cast.not.i = icmp eq i8 %1, 0
  br i1 %bf.cast.not.i, label %cond.false.i, label %invoke.cont4

cond.false.i:                                     ; preds = %entry
  invoke void @_ZN4absl12lts_2023080212log_internal15LogMessageFatalC1EPKciSt17basic_string_viewIcSt11char_traitsIcEE(ptr noundef nonnull align 8 dereferenceable(16) %ref.tmp2.i, ptr noundef nonnull @.str.6, i32 noundef 2643, i64 13, ptr nonnull @.str.7) #24
          to label %.noexc unwind label %lpad3

.noexc:                                           ; preds = %cond.false.i
  call void @_ZN4absl12lts_2023080212log_internal15LogMessageFatalD1Ev(ptr noundef nonnull align 8 dereferenceable(16) %ref.tmp2.i) #25
  unreachable

invoke.cont4:                                     ; preds = %entry
  %scope_.i = getelementptr inbounds i8, ptr %0, i64 40
  %2 = load ptr, ptr %scope_.i, align 8
  call void @llvm.lifetime.end.p0(i64 16, ptr nonnull %ref.tmp2.i)
  %cmp.not = icmp eq ptr %2, null
  %3 = load ptr, ptr %name_resolver_, align 8
  br i1 %cmp.not, label %if.else, label %invoke.cont8

invoke.cont8:                                     ; preds = %invoke.cont4
  invoke void @_ZN6google8protobuf8compiler4java17ClassNameResolver12GetClassNameB5cxx11EPKNS0_10DescriptorEb(ptr nonnull sret(%"class.std::__cxx11::basic_string") align 8 %ref.tmp, ptr noundef nonnull align 8 dereferenceable(112) %3, ptr noundef nonnull %2, i1 noundef zeroext true)
          to label %if.end unwind label %lpad3

lpad3:                                            ; preds = %if.else, %invoke.cont8, %cond.false.i
  %4 = landingpad { ptr, i32 }
          cleanup
  call void @_ZNSt7__cxx1112basic_stringIcSt11char_traitsIcESaIcEED1Ev(ptr noundef nonnull align 8 dereferenceable(32) %scope_) #23
  resume { ptr, i32 } %4

if.else:                                          ; preds = %invoke.cont4
  %file_.i = getelementptr inbounds i8, ptr %0, i64 16
  %5 = load ptr, ptr %file_.i, align 8
  invoke void @_ZN6google8protobuf8compiler4java17ClassNameResolver12GetClassNameB5cxx11EPKNS0_14FileDescriptorEb(ptr nonnull sret(%"class.std::__cxx11::basic_string") align 8 %ref.tmp13, ptr noundef nonnull align 8 dereferenceable(112) %3, ptr noundef %5, i1 noundef zeroext true)
          to label %if.end unwind label %lpad3

if.end:                                           ; preds = %if.else, %invoke.cont8
  %ref.tmp13.sink13 = phi ptr [ %ref.tmp, %invoke.cont8 ], [ %ref.tmp13, %if.else ]
  %call20 = call noundef nonnull align 8 dereferenceable(32) ptr @_ZNSt7__cxx1112basic_stringIcSt11char_traitsIcESaIcEEaSEOS4_(ptr noundef nonnull align 8 dereferenceable(32) %scope_, ptr noundef nonnull align 8 dereferenceable(32) %ref.tmp13.sink13) #23
  call void @_ZNSt7__cxx1112basic_stringIcSt11char_traitsIcESaIcEED1Ev(ptr noundef nonnull align 8 dereferenceable(32) %ref.tmp13.sink13) #23
  ret void
}